target datalayout = "e-m:e-p270:32:32-p271:32:32-p272:64:64-i64:64-i128:128-f80:128-n8:16:32:64-S128"
target triple = "x86_64-pc-linux-gnu"

; Function Attrs: nounwind uwtable
define dso_local void @matrix_mul_matrix(i32 noundef %0, ptr noundef %1, ptr noundef %2, ptr noundef %3) #0 {
  %5 = alloca i32, align 4
  %6 = alloca ptr, align 8
  %7 = alloca ptr, align 8
  %8 = alloca ptr, align 8
  %9 = alloca i32, align 4
  %10 = alloca i32, align 4
  %11 = alloca i32, align 4
  store i32 %0, ptr %5, align 4, !tbaa !16
  store ptr %1, ptr %6, align 8, !tbaa !18
  store ptr %2, ptr %7, align 8, !tbaa !20
  store ptr %3, ptr %8, align 8, !tbaa !20
  call void @llvm.lifetime.start.p0(i64 4, ptr %9) #3
  call void @llvm.lifetime.start.p0(i64 4, ptr %10) #3
  call void @llvm.lifetime.start.p0(i64 4, ptr %11) #3
  store i32 0, ptr %9, align 4, !tbaa !16
  br label %12

12:                                               ; preds = %74, %4
  %13 = load i32, ptr %9, align 4, !tbaa !16
  %14 = load i32, ptr %5, align 4, !tbaa !16
  %15 = icmp ult i32 %13, %14
  br i1 %15, label %16, label %77

16:                                               ; preds = %12
  store i32 0, ptr %10, align 4, !tbaa !16
  br label %17

17:                                               ; preds = %70, %16
  %18 = load i32, ptr %10, align 4, !tbaa !16
  %19 = load i32, ptr %5, align 4, !tbaa !16
  %20 = icmp ult i32 %18, %19
  br i1 %20, label %21, label %73

21:                                               ; preds = %17
  %22 = load ptr, ptr %6, align 8, !tbaa !18
  %23 = load i32, ptr %9, align 4, !tbaa !16
  %24 = load i32, ptr %5, align 4, !tbaa !16
  %25 = mul i32 %23, %24
  %26 = load i32, ptr %10, align 4, !tbaa !16
  %27 = add i32 %25, %26
  %28 = zext i32 %27 to i64
  %29 = getelementptr inbounds nuw i32, ptr %22, i64 %28
  store i32 0, ptr %29, align 4, !tbaa !16
  store i32 0, ptr %11, align 4, !tbaa !16
  br label %30

30:                                               ; preds = %66, %21
  %31 = load i32, ptr %11, align 4, !tbaa !16
  %32 = load i32, ptr %5, align 4, !tbaa !16
  %33 = icmp ult i32 %31, %32
  br i1 %33, label %34, label %69

34:                                               ; preds = %30
  %35 = load ptr, ptr %7, align 8, !tbaa !20
  %36 = load i32, ptr %9, align 4, !tbaa !16
  %37 = load i32, ptr %5, align 4, !tbaa !16
  %38 = mul i32 %36, %37
  %39 = load i32, ptr %11, align 4, !tbaa !16
  %40 = add i32 %38, %39
  %41 = zext i32 %40 to i64
  %42 = getelementptr inbounds nuw i16, ptr %35, i64 %41
  %43 = load i16, ptr %42, align 2, !tbaa !9
  %44 = sext i16 %43 to i32
  %45 = load ptr, ptr %8, align 8, !tbaa !20
  %46 = load i32, ptr %11, align 4, !tbaa !16
  %47 = load i32, ptr %5, align 4, !tbaa !16
  %48 = mul i32 %46, %47
  %49 = load i32, ptr %10, align 4, !tbaa !16
  %50 = add i32 %48, %49
  %51 = zext i32 %50 to i64
  %52 = getelementptr inbounds nuw i16, ptr %45, i64 %51
  %53 = load i16, ptr %52, align 2, !tbaa !9
  %54 = sext i16 %53 to i32
  %55 = mul nsw i32 %44, %54
  %56 = load ptr, ptr %6, align 8, !tbaa !18
  %57 = load i32, ptr %9, align 4, !tbaa !16
  %58 = load i32, ptr %5, align 4, !tbaa !16
  %59 = mul i32 %57, %58
  %60 = load i32, ptr %10, align 4, !tbaa !16
  %61 = add i32 %59, %60
  %62 = zext i32 %61 to i64
  %63 = getelementptr inbounds nuw i32, ptr %56, i64 %62
  %64 = load i32, ptr %63, align 4, !tbaa !16
  %65 = add nsw i32 %64, %55
  store i32 %65, ptr %63, align 4, !tbaa !16
  br label %66

66:                                               ; preds = %34
  %67 = load i32, ptr %11, align 4, !tbaa !16
  %68 = add i32 %67, 1
  store i32 %68, ptr %11, align 4, !tbaa !16
  br label %30, !llvm.loop !31

69:                                               ; preds = %30
  br label %70

70:                                               ; preds = %69
  %71 = load i32, ptr %10, align 4, !tbaa !16
  %72 = add i32 %71, 1
  store i32 %72, ptr %10, align 4, !tbaa !16
  br label %17, !llvm.loop !32

73:                                               ; preds = %17
  br label %74

74:                                               ; preds = %73
  %75 = load i32, ptr %9, align 4, !tbaa !16
  %76 = add i32 %75, 1
  store i32 %76, ptr %9, align 4, !tbaa !16
  br label %12, !llvm.loop !33

77:                                               ; preds = %12
  call void @llvm.lifetime.end.p0(i64 4, ptr %11) #3
  call void @llvm.lifetime.end.p0(i64 4, ptr %10) #3
  call void @llvm.lifetime.end.p0(i64 4, ptr %9) #3
  ret void
}