; Function Attrs: nofree norecurse nosync nounwind memory(argmem: readwrite) uwtable
define dso_local void @matrix_mul_matrix(i32 noundef %0, ptr noundef writeonly captures(none) %1, ptr noundef readonly captures(none) %2, ptr noundef readonly captures(none) %3) local_unnamed_addr #2 {
  %.not = icmp eq i32 %0, 0
  br i1 %.not, label %._crit_edge, label %.preheader.preheader

.preheader.preheader:                             ; preds = %4
  %wide.trip.count34 = zext i32 %0 to i64
  br label %.preheader

.preheader:                                       ; preds = %.preheader.preheader, %28
  %.02529 = phi i32 [ %29, %28 ], [ 0, %.preheader.preheader ]
  %5 = mul i32 %.02529, %0
  br label %6

6:                                                ; preds = %.preheader, %27
  %indvars.iv31 = phi i64 [ 0, %.preheader ], [ %indvars.iv.next32, %27 ]
  %7 = trunc nuw i64 %indvars.iv31 to i32
  %8 = add i32 %5, %7
  %9 = zext i32 %8 to i64
  %10 = getelementptr inbounds nuw i32, ptr %1, i64 %9
  br label %11

11:                                               ; preds = %6, %11
  %indvars.iv = phi i64 [ 0, %6 ], [ %indvars.iv.next, %11 ]
  %12 = phi i32 [ 0, %6 ], [ %26, %11 ]
  %13 = trunc nuw i64 %indvars.iv to i32
  %14 = add i32 %5, %13
  %15 = zext i32 %14 to i64
  %16 = getelementptr inbounds nuw i16, ptr %2, i64 %15
  %17 = load i16, ptr %16, align 2, !tbaa !15
  %18 = sext i16 %17 to i32
  %19 = mul i32 %0, %13
  %20 = add i32 %19, %7
  %21 = zext i32 %20 to i64
  %22 = getelementptr inbounds nuw i16, ptr %3, i64 %21
  %23 = load i16, ptr %22, align 2, !tbaa !15
  %24 = sext i16 %23 to i32
  %25 = mul nsw i32 %24, %18
  %26 = add nsw i32 %25, %12
  %indvars.iv.next = add nuw nsw i64 %indvars.iv, 1
  %exitcond.not = icmp eq i64 %indvars.iv.next, %wide.trip.count34
  br i1 %exitcond.not, label %27, label %11, !llvm.loop !27

27:                                               ; preds = %11
  store i32 %26, ptr %10, align 4, !tbaa !20
  %indvars.iv.next32 = add nuw nsw i64 %indvars.iv31, 1
  %exitcond35.not = icmp eq i64 %indvars.iv.next32, %wide.trip.count34
  br i1 %exitcond35.not, label %28, label %6, !llvm.loop !28

28:                                               ; preds = %27
  %29 = add nuw i32 %.02529, 1
  %exitcond36.not = icmp eq i32 %29, %0
  br i1 %exitcond36.not, label %._crit_edge, label %.preheader, !llvm.loop !29

._crit_edge:                                      ; preds = %28, %4
  ret void
}